; Function Attrs: mustprogress nofree norecurse nounwind willreturn memory(argmem: readwrite, inaccessiblemem: readwrite) uwtable
define hidden float @ma_spatializer_get_rolloff(ptr noundef %0) local_unnamed_addr #27 {
  %2 = icmp eq ptr %0, null
  br i1 %2, label %7, label %3

3:                                                ; preds = %1
  %4 = getelementptr inbounds nuw i8, ptr %0, i64 44
  %5 = load atomic volatile i32, ptr %4 seq_cst, align 4
  %6 = bitcast i32 %5 to float
  br label %7

7:                                                ; preds = %1, %3
  %.0 = phi float [ %6, %3 ], [ 0.000000e+00, %1 ]
  ret float %.0
}